; Function Attrs: mustprogress norecurse uwtable
define dso_local noundef i32 @main() local_unnamed_addr #6 personality ptr @__gxx_personality_v0 {
  %1 = alloca %"struct.pxrInternal_v0_24__pxrReserved__::Tf_DiagnosticLiteHelper", align 8
  %2 = alloca %"class.pxrInternal_v0_24__pxrReserved__::TfErrorMark", align 8
  call void @_ZN32pxrInternal_v0_24__pxrReserved__11TfErrorMarkC1Ev(ptr noundef nonnull align 8 dereferenceable(8) %2)
  invoke void @_Z18TestObjectsChangedv()
          to label %3 unwind label %13

3:                                                ; preds = %0
  %4 = invoke noundef nonnull align 8 dereferenceable(481) ptr @_ZN32pxrInternal_v0_24__pxrReserved__11TfSingletonINS_15TfDiagnosticMgrEE11GetInstanceEv()
          to label %.noexc unwind label %13

.noexc:                                           ; preds = %3
  %5 = load i64, ptr %2, align 8
  %6 = getelementptr inbounds nuw i8, ptr %4, i64 152
  %7 = load atomic i64, ptr %6 seq_cst, align 8
  %.not.i = icmp ult i64 %5, %7
  br i1 %.not.i, label %8, label %_ZNK32pxrInternal_v0_24__pxrReserved__11TfErrorMark7IsCleanEv.exit.thread

_ZNK32pxrInternal_v0_24__pxrReserved__11TfErrorMark7IsCleanEv.exit.thread: ; preds = %.noexc
  call void @llvm.lifetime.start.p0(i64 48, ptr nonnull %1)
  br label %12

8:                                                ; preds = %.noexc
  %9 = invoke noundef zeroext i1 @_ZNK32pxrInternal_v0_24__pxrReserved__11TfErrorMark12_IsCleanImplERNS_15TfDiagnosticMgrE(ptr noundef nonnull align 8 dereferenceable(8) %2, ptr noundef nonnull align 8 dereferenceable(481) %4)
          to label %_ZNK32pxrInternal_v0_24__pxrReserved__11TfErrorMark7IsCleanEv.exit unwind label %13

_ZNK32pxrInternal_v0_24__pxrReserved__11TfErrorMark7IsCleanEv.exit: ; preds = %8
  call void @llvm.lifetime.start.p0(i64 48, ptr nonnull %1)
  br i1 %9, label %12, label %10

10:                                               ; preds = %_ZNK32pxrInternal_v0_24__pxrReserved__11TfErrorMark7IsCleanEv.exit
  store ptr @.str.38, ptr %1, align 8
  %.sroa.2.0..sroa_idx = getelementptr inbounds nuw i8, ptr %1, i64 8
  store ptr @__func__.main, ptr %.sroa.2.0..sroa_idx, align 8
  %.sroa.3.0..sroa_idx = getelementptr inbounds nuw i8, ptr %1, i64 16
  store i64 539, ptr %.sroa.3.0..sroa_idx, align 8
  %.sroa.4.0..sroa_idx = getelementptr inbounds nuw i8, ptr %1, i64 24
  store ptr @__PRETTY_FUNCTION__.main, ptr %.sroa.4.0..sroa_idx, align 8
  %.sroa.5.0..sroa_idx = getelementptr inbounds nuw i8, ptr %1, i64 32
  store i8 0, ptr %.sroa.5.0..sroa_idx, align 8
  %11 = getelementptr inbounds nuw i8, ptr %1, i64 40
  store i32 4, ptr %11, align 8
  invoke void (ptr, ptr, ...) @_ZNK32pxrInternal_v0_24__pxrReserved__23Tf_DiagnosticLiteHelper15IssueFatalErrorEPKcz(ptr noundef nonnull align 8 dereferenceable(44) %1, ptr noundef nonnull @.str.56, ptr noundef nonnull @.str.39) #22
          to label %.noexc2 unwind label %13

.noexc2:                                          ; preds = %10
  unreachable

12:                                               ; preds = %_ZNK32pxrInternal_v0_24__pxrReserved__11TfErrorMark7IsCleanEv.exit, %_ZNK32pxrInternal_v0_24__pxrReserved__11TfErrorMark7IsCleanEv.exit.thread
  call void @llvm.lifetime.end.p0(i64 48, ptr nonnull %1)
  call void @_ZN32pxrInternal_v0_24__pxrReserved__11TfErrorMarkD1Ev(ptr noundef nonnull align 8 dereferenceable(8) %2) #23
  ret i32 0

13:                                               ; preds = %10, %8, %3, %0
  %14 = landingpad { ptr, i32 }
          cleanup
  call void @_ZN32pxrInternal_v0_24__pxrReserved__11TfErrorMarkD1Ev(ptr noundef nonnull align 8 dereferenceable(8) %2) #23
  resume { ptr, i32 } %14
}